; Function Attrs: mustprogress uwtable
define void @_ZN19QualityMapperDialog21on_blueButton_toggledEb(ptr noundef nonnull align 8 dereferenceable(824) %0, i1 noundef zeroext %1) local_unnamed_addr #9 align 2 {
  br i1 %1, label %3, label %4

3:                                                ; preds = %2
  tail call void @_ZN19QualityMapperDialog16moveAheadChannelE11TF_CHANNELS(ptr noundef nonnull align 8 dereferenceable(824) %0, i32 noundef 2)
  br label %4

4:                                                ; preds = %3, %2
  ret void
}